target datalayout = "e-m:e-p270:32:32-p271:32:32-p272:64:64-i64:64-i128:128-f80:128-n8:16:32:64-S128"
target triple = "x86_64-unknown-linux-gnu"

module asm ".section\09\22.initcall6.init\22, \22a\22\09\09"
module asm "__initcall__kmod_hid_kensington__420_47_ks_driver_init6:\09\09\09"
module asm ".long\09ks_driver_init - .\09"
module asm ".previous\09\09\09\09\09"

%struct.hid_driver = type { ptr, ptr, %struct.list_head, %struct.spinlock, ptr, ptr, ptr, ptr, ptr, ptr, ptr, ptr, ptr, ptr, ptr, ptr, ptr, ptr, ptr, ptr, %struct.device_driver }
%struct.list_head = type { ptr, ptr }
%struct.spinlock = type { %union.anon }
%union.anon = type { %struct.raw_spinlock }
%struct.raw_spinlock = type { %struct.qspinlock }
%struct.qspinlock = type { %union.anon.0 }
%union.anon.0 = type { %struct.atomic_t }
%struct.atomic_t = type { i32 }
%struct.device_driver = type { ptr, ptr, ptr, ptr, i8, i32, ptr, ptr, ptr, ptr, ptr, ptr, ptr, ptr, ptr, ptr, ptr, ptr, ptr }
%struct.hid_device_id = type { i16, i16, i32, i32, i64 }
%struct.ratelimit_state = type { %struct.raw_spinlock, i32, i32, i32, i32, i64, i64 }

@__UNIQUE_ID___addressable_ks_driver_init421 = internal global ptr @ks_driver_init, section ".discard.addressable", align 8
@ks_driver = internal global %struct.hid_driver { ptr @.str.1, ptr @ks_devices, %struct.list_head zeroinitializer, %struct.spinlock zeroinitializer, ptr null, ptr null, ptr null, ptr null, ptr null, ptr null, ptr null, ptr null, ptr null, ptr @ks_input_mapping, ptr null, ptr null, ptr null, ptr null, ptr null, ptr null, %struct.device_driver zeroinitializer }, align 8
@__exitcall_ks_driver_exit = internal global ptr @ks_driver_exit, section ".exitcall.exit", align 8
@__UNIQUE_ID_file422 = internal constant [47 x i8] c"hid_kensington.file=drivers/hid/hid-kensington\00", section ".modinfo", align 1
@__UNIQUE_ID_license423 = internal constant [27 x i8] c"hid_kensington.license=GPL\00", section ".modinfo", align 1
@.str = private unnamed_addr constant [15 x i8] c"hid_kensington\00", align 1
@.str.1 = private unnamed_addr constant [11 x i8] c"kensington\00", align 1
@ks_devices = internal constant [2 x %struct.hid_device_id] [%struct.hid_device_id { i16 3, i16 0, i32 1149, i32 8257, i64 0 }, %struct.hid_device_id zeroinitializer], align 16
@hid_map_usage._rs = internal global %struct.ratelimit_state { %struct.raw_spinlock zeroinitializer, i32 5000, i32 10, i32 0, i32 0, i64 0, i64 0 }, align 8
@__func__.hid_map_usage = private unnamed_addr constant [14 x i8] c"hid_map_usage\00", align 1
@.str.2 = private unnamed_addr constant [31 x i8] c"\014%s: Invalid code %d type %d\0A\00", align 1
@llvm.compiler.used = appending global [5 x ptr] [ptr @__UNIQUE_ID___addressable_ks_driver_init421, ptr @__UNIQUE_ID_file422, ptr @__UNIQUE_ID_license423, ptr @__exitcall_ks_driver_exit, ptr @ks_driver_exit], section "llvm.metadata"

; Function Attrs: cold fn_ret_thunk_extern nounwind null_pointer_is_valid optsize
define internal i32 @ks_driver_init() #0 section ".init.text" align 16 {
  %1 = tail call i32 @__hid_register_driver(ptr noundef nonnull @ks_driver, ptr noundef null, ptr noundef nonnull @.str) #4
  ret i32 %1
}

; Function Attrs: cold fn_ret_thunk_extern nounwind null_pointer_is_valid optsize
define internal void @ks_driver_exit() #0 section ".exit.text" align 16 {
  tail call void @hid_unregister_driver(ptr noundef nonnull @ks_driver) #4
  ret void
}

; Function Attrs: null_pointer_is_valid
declare dso_local void @hid_unregister_driver(ptr noundef) local_unnamed_addr #1

; Function Attrs: null_pointer_is_valid
declare dso_local i32 @__hid_register_driver(ptr noundef, ptr noundef, ptr noundef) local_unnamed_addr #1

; Function Attrs: fn_ret_thunk_extern nounwind null_pointer_is_valid
define internal noundef i32 @ks_input_mapping(ptr nocapture readnone %0, ptr nocapture noundef readonly %1, ptr nocapture readnone %2, ptr nocapture noundef %3, ptr nocapture noundef writeonly %4, ptr nocapture noundef writeonly %5) #2 align 16 {
  %7 = load i32, ptr %3, align 4
  %8 = and i32 %7, -65536
  %9 = icmp eq i32 %8, -16777216
  br i1 %9, label %10, label %42

10:                                               ; preds = %6
  %11 = trunc i32 %7 to i16
  switch i16 %11, label %42 [
    i16 1, label %12
    i16 2, label %26
  ]

12:                                               ; preds = %10
  %13 = getelementptr inbounds i8, ptr %1, i64 24
  %14 = load ptr, ptr %13, align 8
  %15 = getelementptr inbounds i8, ptr %14, i64 48
  %16 = icmp eq ptr %15, null
  br i1 %16, label %17, label %23, !prof !5

17:                                               ; preds = %12
  %18 = tail call i32 @___ratelimit(ptr noundef nonnull @hid_map_usage._rs, ptr noundef nonnull @__func__.hid_map_usage) #4
  %19 = icmp eq i32 %18, 0
  br i1 %19, label %40, label %20

20:                                               ; preds = %17
  %21 = load ptr, ptr %14, align 8
  %22 = tail call i32 (ptr, ...) @_printk(ptr noundef nonnull @.str.2, ptr noundef %21, i32 noundef 274, i32 noundef 1) #5
  br label %40

23:                                               ; preds = %12
  %24 = getelementptr inbounds i8, ptr %3, i64 16
  store i8 1, ptr %24, align 4
  %25 = getelementptr inbounds i8, ptr %3, i64 14
  store i16 274, ptr %25, align 2
  store i32 767, ptr %5, align 4
  br label %40

26:                                               ; preds = %10
  %27 = getelementptr inbounds i8, ptr %1, i64 24
  %28 = load ptr, ptr %27, align 8
  %29 = getelementptr inbounds i8, ptr %28, i64 48
  %30 = icmp eq ptr %29, null
  br i1 %30, label %31, label %37, !prof !5

31:                                               ; preds = %26
  %32 = tail call i32 @___ratelimit(ptr noundef nonnull @hid_map_usage._rs, ptr noundef nonnull @__func__.hid_map_usage) #4
  %33 = icmp eq i32 %32, 0
  br i1 %33, label %40, label %34

34:                                               ; preds = %31
  %35 = load ptr, ptr %28, align 8
  %36 = tail call i32 (ptr, ...) @_printk(ptr noundef nonnull @.str.2, ptr noundef %35, i32 noundef 275, i32 noundef 1) #5
  br label %40

37:                                               ; preds = %26
  %38 = getelementptr inbounds i8, ptr %3, i64 16
  store i8 1, ptr %38, align 4
  %39 = getelementptr inbounds i8, ptr %3, i64 14
  store i16 275, ptr %39, align 2
  store i32 767, ptr %5, align 4
  br label %40

40:                                               ; preds = %37, %34, %31, %23, %20, %17
  %41 = phi ptr [ %15, %23 ], [ null, %20 ], [ null, %17 ], [ %29, %37 ], [ null, %34 ], [ null, %31 ]
  store ptr %41, ptr %4, align 8
  br label %42

42:                                               ; preds = %40, %10, %6
  %43 = phi i32 [ 0, %6 ], [ 0, %10 ], [ 1, %40 ]
  ret i32 %43
}

; Function Attrs: null_pointer_is_valid
declare dso_local i32 @___ratelimit(ptr noundef, ptr noundef) local_unnamed_addr #1

; Function Attrs: cold null_pointer_is_valid
declare dso_local i32 @_printk(ptr noundef, ...) local_unnamed_addr #3


!llvm.module.flags = !{!0, !1, !2, !3, !4}

!0 = !{i32 1, !"wchar_size", i32 2}
!1 = !{i32 8, !"cf-protection-branch", i32 1}
!2 = !{i32 4, !"function_return_thunk_extern", i32 1}
!3 = !{i32 4, !"indirect_branch_cs_prefix", i32 1}
!4 = !{i32 4, !"SkipRaxSetup", i32 1}
!5 = !{!"branch_weights", i32 1, i32 2000}
